; Function Attrs: mustprogress uwtable
define internal noundef zeroext i1 @"_ZNSt17_Function_handlerIFvRKN2cv5RangeEEZNS0_5kinfu22integrateRGBVolumeUnitEffiNS0_4MatxIfLi4ELi4EEENS0_7Point3_IiEENS0_3VecIiLi4EEERKNS0_11_InputArrayESE_fRKS7_RKNS5_4IntrESJ_SE_SE_E3$_0E10_M_managerERSt9_Any_dataRKSM_St18_Manager_operation"(ptr nocapture noundef nonnull align 8 dereferenceable(16) %0, ptr nocapture noundef nonnull readonly align 8 dereferenceable(16) %1, i32 noundef %2) #3 align 2 {
  switch i32 %2, label %"_ZNSt14_Function_base13_Base_managerIZN2cv5kinfu22integrateRGBVolumeUnitEffiNS1_4MatxIfLi4ELi4EEENS1_7Point3_IiEENS1_3VecIiLi4EEERKNS1_11_InputArrayESB_fRKS4_RKNS2_4IntrESG_SB_SB_E3$_0E10_M_managerERSt9_Any_dataRKSJ_St18_Manager_operation.exit" [
    i32 0, label %4
    i32 1, label %5
    i32 3, label %8
    i32 2, label %6
  ]

4:                                                ; preds = %3
  store ptr @"_ZTIZN2cv5kinfu22integrateRGBVolumeUnitEffiNS_4MatxIfLi4ELi4EEENS_7Point3_IiEENS_3VecIiLi4EEERKNS_11_InputArrayES9_fRKS2_RKNS0_4IntrESE_S9_S9_E3$_0", ptr %0, align 8
  br label %"_ZNSt14_Function_base13_Base_managerIZN2cv5kinfu22integrateRGBVolumeUnitEffiNS1_4MatxIfLi4ELi4EEENS1_7Point3_IiEENS1_3VecIiLi4EEERKNS1_11_InputArrayESB_fRKS4_RKNS2_4IntrESG_SB_SB_E3$_0E10_M_managerERSt9_Any_dataRKSJ_St18_Manager_operation.exit"

5:                                                ; preds = %3
  %.val = load ptr, ptr %1, align 8
  store ptr %.val, ptr %0, align 8
  br label %"_ZNSt14_Function_base13_Base_managerIZN2cv5kinfu22integrateRGBVolumeUnitEffiNS1_4MatxIfLi4ELi4EEENS1_7Point3_IiEENS1_3VecIiLi4EEERKNS1_11_InputArrayESB_fRKS4_RKNS2_4IntrESG_SB_SB_E3$_0E10_M_managerERSt9_Any_dataRKSJ_St18_Manager_operation.exit"

6:                                                ; preds = %3
  %.val6 = load ptr, ptr %1, align 8
  %7 = tail call noalias noundef nonnull dereferenceable(112) ptr @_Znwm(i64 noundef 112) #20
  tail call void @llvm.memcpy.p0.p0.i64(ptr noundef nonnull align 16 dereferenceable(112) %7, ptr noundef nonnull readonly align 8 dereferenceable(112) %.val6, i64 112, i1 false)
  store ptr %7, ptr %0, align 8
  br label %"_ZNSt14_Function_base13_Base_managerIZN2cv5kinfu22integrateRGBVolumeUnitEffiNS1_4MatxIfLi4ELi4EEENS1_7Point3_IiEENS1_3VecIiLi4EEERKNS1_11_InputArrayESB_fRKS4_RKNS2_4IntrESG_SB_SB_E3$_0E10_M_managerERSt9_Any_dataRKSJ_St18_Manager_operation.exit"

8:                                                ; preds = %3
  %.val7.i = load ptr, ptr %0, align 8
  %9 = icmp eq ptr %.val7.i, null
  br i1 %9, label %"_ZNSt14_Function_base13_Base_managerIZN2cv5kinfu22integrateRGBVolumeUnitEffiNS1_4MatxIfLi4ELi4EEENS1_7Point3_IiEENS1_3VecIiLi4EEERKNS1_11_InputArrayESB_fRKS4_RKNS2_4IntrESG_SB_SB_E3$_0E10_M_managerERSt9_Any_dataRKSJ_St18_Manager_operation.exit", label %10

10:                                               ; preds = %8
  tail call void @_ZdlPv(ptr noundef nonnull %.val7.i) #21
  br label %"_ZNSt14_Function_base13_Base_managerIZN2cv5kinfu22integrateRGBVolumeUnitEffiNS1_4MatxIfLi4ELi4EEENS1_7Point3_IiEENS1_3VecIiLi4EEERKNS1_11_InputArrayESB_fRKS4_RKNS2_4IntrESG_SB_SB_E3$_0E10_M_managerERSt9_Any_dataRKSJ_St18_Manager_operation.exit"

"_ZNSt14_Function_base13_Base_managerIZN2cv5kinfu22integrateRGBVolumeUnitEffiNS1_4MatxIfLi4ELi4EEENS1_7Point3_IiEENS1_3VecIiLi4EEERKNS1_11_InputArrayESB_fRKS4_RKNS2_4IntrESG_SB_SB_E3$_0E10_M_managerERSt9_Any_dataRKSJ_St18_Manager_operation.exit": ; preds = %3, %10, %8, %6, %5, %4
  ret i1 false
}